target datalayout = "e-m:e-p270:32:32-p271:32:32-p272:64:64-i64:64-i128:128-f80:128-n8:16:32:64-S128"
target triple = "x86_64-pc-linux-gnu"

@.str = private unnamed_addr constant [18 x i8] c"%s[%d] (%d - %d)\0A\00", align 1
@.str.1 = private unnamed_addr constant [14 x i8] c"%s (%d - %d)\0A\00", align 1

; Function Attrs: mustprogress nounwind uwtable
define void @_Z6cmp_ucP8_IO_FILEPKcihh(ptr noundef %0, ptr noundef %1, i32 noundef %2, i8 noundef zeroext %3, i8 noundef zeroext %4) #0 {
  %6 = alloca ptr, align 8
  %7 = alloca ptr, align 8
  %8 = alloca i32, align 4
  %9 = alloca i8, align 1
  %10 = alloca i8, align 1
  store ptr %0, ptr %6, align 8, !tbaa !4
  store ptr %1, ptr %7, align 8, !tbaa !9
  store i32 %2, ptr %8, align 4, !tbaa !11
  store i8 %3, ptr %9, align 1, !tbaa !17
  store i8 %4, ptr %10, align 1, !tbaa !17
  %11 = load i8, ptr %9, align 1, !tbaa !17
  %12 = zext i8 %11 to i32
  %13 = load i8, ptr %10, align 1, !tbaa !17
  %14 = zext i8 %13 to i32
  %15 = icmp ne i32 %12, %14
  br i1 %15, label %16, label %37

16:                                               ; preds = %5
  %17 = load i32, ptr %8, align 4, !tbaa !11
  %18 = icmp ne i32 %17, -1
  br i1 %18, label %19, label %28

19:                                               ; preds = %16
  %20 = load ptr, ptr %6, align 8, !tbaa !4
  %21 = load ptr, ptr %7, align 8, !tbaa !9
  %22 = load i32, ptr %8, align 4, !tbaa !11
  %23 = load i8, ptr %9, align 1, !tbaa !17
  %24 = zext i8 %23 to i32
  %25 = load i8, ptr %10, align 1, !tbaa !17
  %26 = zext i8 %25 to i32
  %27 = call i32 (ptr, ptr, ...) @fprintf(ptr noundef %20, ptr noundef @.str, ptr noundef %21, i32 noundef %22, i32 noundef %24, i32 noundef %26) #6
  br label %36

28:                                               ; preds = %16
  %29 = load ptr, ptr %6, align 8, !tbaa !4
  %30 = load ptr, ptr %7, align 8, !tbaa !9
  %31 = load i8, ptr %9, align 1, !tbaa !17
  %32 = zext i8 %31 to i32
  %33 = load i8, ptr %10, align 1, !tbaa !17
  %34 = zext i8 %33 to i32
  %35 = call i32 (ptr, ptr, ...) @fprintf(ptr noundef %29, ptr noundef @.str.1, ptr noundef %30, i32 noundef %32, i32 noundef %34) #6
  br label %36

36:                                               ; preds = %28, %19
  br label %37

37:                                               ; preds = %36, %5
  ret void
}